; Function Attrs: null_pointer_is_valid sspstrong uwtable
define internal i32 @dissect_dlsw_udp(ptr noundef %0, ptr noundef %1, ptr noundef %2, ptr noundef readnone captures(none) %3) #0 {
  %5 = tail call zeroext i8 @tvb_get_uint8(ptr noundef %0, i32 noundef 0)
  %6 = zext i8 %5 to i32
  %7 = tail call ptr @try_val_to_str(i32 noundef %6, ptr noundef nonnull @dlsw_version_vals)
  %8 = icmp eq ptr %7, null
  br i1 %8, label %11, label %9

9:                                                ; preds = %4
  %10 = tail call i32 @dissect_dlsw_pdu(ptr noundef %0, ptr noundef %1, ptr noundef %2, ptr poison)
  br label %11

11:                                               ; preds = %4, %9
  %.0 = phi i32 [ %10, %9 ], [ 0, %4 ]
  ret i32 %.0
}